target datalayout = "e-m:e-p270:32:32-p271:32:32-p272:64:64-i64:64-i128:128-f80:128-n8:16:32:64-S128"
target triple = "x86_64-unknown-linux-gnu"

%"struct.EA::Thread::ThreadTime" = type { %struct.timespec }
%struct.timespec = type { i64, i64 }
%"struct.EA::StdC::OSGlobalNode" = type { %"struct.EA::StdC::intrusive_list_node", i32, i32 }
%"struct.EA::StdC::intrusive_list_node" = type { ptr, ptr }
%"struct.(anonymous namespace)::OSGlobalManager" = type { %"class.EA::StdC::intrusive_list", i32, [4 x i8], %"class.EA::StdC::Mutex" }
%"class.EA::StdC::intrusive_list" = type { %"class.EA::StdC::intrusive_list_base" }
%"class.EA::StdC::intrusive_list_base" = type { %"struct.EA::StdC::intrusive_list_node" }
%"class.EA::StdC::Mutex" = type { %"class.EA::Thread::Mutex" }
%"class.EA::Thread::Mutex" = type { %struct.EAMutexData }
%struct.EAMutexData = type <{ %union.pthread_mutex_t, i32, [4 x i8] }>
%union.pthread_mutex_t = type { %struct.__pthread_mutex_s }
%struct.__pthread_mutex_s = type { i32, i32, i32, i32, i32, i16, i16, %struct.__pthread_internal_list }
%struct.__pthread_internal_list = type { ptr, ptr }
%"class.EA::StdC::intrusive_list_iterator" = type { ptr }

@_ZN2EA6ThreadL12kTimeoutNoneE = internal global %"struct.EA::Thread::ThreadTime" zeroinitializer, align 8
@_ZN12_GLOBAL__N_117gpOSGlobalManagerE = internal global ptr null, align 8
@_ZN12_GLOBAL__N_113gOSGlobalRefsE = internal global i32 0, align 4
@.str = private unnamed_addr constant [20 x i8] c"/SingleMgrMutex%llu\00", align 1

; Function Attrs: mustprogress nounwind uwtable
define linkonce_odr dso_local void @_ZN2EA4StdC5MutexD2Ev(ptr noundef nonnull align 8 dereferenceable(48) %this) unnamed_addr #1 comdat align 2 {
entry:
  %this.addr = alloca ptr, align 8
  store ptr %this, ptr %this.addr, align 8
  %this1 = load ptr, ptr %this.addr, align 8
  %mMutex = getelementptr inbounds %"class.EA::StdC::Mutex", ptr %this1, i32 0, i32 0
  call void @_ZN2EA6Thread5MutexD1Ev(ptr noundef nonnull align 8 dereferenceable(48) %mMutex) #3
  ret void
}

; Function Attrs: mustprogress nounwind uwtable
define internal void @_ZN12_GLOBAL__N_115OSGlobalManagerD2Ev(ptr noundef nonnull align 8 dereferenceable(72) %this) unnamed_addr #1 align 2 {
entry:
  %this.addr = alloca ptr, align 8
  store ptr %this, ptr %this.addr, align 8
  %this1 = load ptr, ptr %this.addr, align 8
  %mcsLock = getelementptr inbounds %"struct.(anonymous namespace)::OSGlobalManager", ptr %this1, i32 0, i32 3
  call void @_ZN2EA4StdC5MutexD2Ev(ptr noundef nonnull align 8 dereferenceable(48) %mcsLock) #3
  ret void
}

; Function Attrs: mustprogress nounwind uwtable
define linkonce_odr dso_local void @_ZN2EA4StdC23intrusive_list_iteratorINS0_12OSGlobalNodeEPS2_RS2_EC2ES3_(ptr noundef nonnull align 8 dereferenceable(8) %this, ptr noundef %pNode) unnamed_addr #1 comdat align 2 {
entry:
  %this.addr = alloca ptr, align 8
  %pNode.addr = alloca ptr, align 8
  store ptr %this, ptr %this.addr, align 8
  store ptr %pNode, ptr %pNode.addr, align 8
  %this1 = load ptr, ptr %this.addr, align 8
  %mpNode = getelementptr inbounds %"class.EA::StdC::intrusive_list_iterator", ptr %this1, i32 0, i32 0
  %0 = load ptr, ptr %pNode.addr, align 8
  store ptr %0, ptr %mpNode, align 8
  ret void
}

; Function Attrs: mustprogress nounwind uwtable
define internal void @_ZN12_GLOBAL__N_122DestroyOSGlobalManagerEPNS_15OSGlobalManagerE(ptr noundef %pOSGlobalManager) #1 {
entry:
  %pOSGlobalManager.addr = alloca ptr, align 8
  store ptr %pOSGlobalManager, ptr %pOSGlobalManager.addr, align 8
  %0 = load ptr, ptr %pOSGlobalManager.addr, align 8
  %tobool = icmp ne ptr %0, null
  br i1 %tobool, label %if.then, label %if.end

if.then:                                          ; preds = %entry
  %1 = load ptr, ptr @_ZN12_GLOBAL__N_117gpOSGlobalManagerE, align 8
  call void @_ZN12_GLOBAL__N_115OSGlobalManagerD2Ev(ptr noundef nonnull align 8 dereferenceable(72) %1) #3
  %2 = load ptr, ptr %pOSGlobalManager.addr, align 8
  %call = call i32 @munmap(ptr noundef %2, i64 noundef 72) #3
  br label %if.end

if.end:                                           ; preds = %if.then, %entry
  ret void
}

; Function Attrs: mustprogress uwtable
define linkonce_odr dso_local void @_ZN2EA4StdC5Mutex6UnlockEv(ptr noundef nonnull align 8 dereferenceable(48) %this) #2 comdat align 2 {
entry:
  %this.addr = alloca ptr, align 8
  store ptr %this, ptr %this.addr, align 8
  %this1 = load ptr, ptr %this.addr, align 8
  %mMutex = getelementptr inbounds %"class.EA::StdC::Mutex", ptr %this1, i32 0, i32 0
  %call = call noundef i32 @_ZN2EA6Thread5Mutex6UnlockEv(ptr noundef nonnull align 8 dereferenceable(48) %mMutex)
  ret void
}

; Function Attrs: mustprogress uwtable
define linkonce_odr dso_local void @_ZN2EA4StdC14intrusive_listINS0_12OSGlobalNodeEE5eraseENS0_23intrusive_list_iteratorIS2_PS2_RS2_EE(ptr noalias sret(%"class.EA::StdC::intrusive_list_iterator") align 8 %agg.result, ptr noundef nonnull align 8 dereferenceable(16) %this, ptr noundef %pos) #2 comdat align 2 {
entry:
  %result.ptr = alloca ptr, align 8
  %this.addr = alloca ptr, align 8
  %pos.indirect_addr = alloca ptr, align 8
  %prev = alloca ptr, align 8
  %next = alloca ptr, align 8
  store ptr %agg.result, ptr %result.ptr, align 8
  store ptr %this, ptr %this.addr, align 8
  store ptr %pos, ptr %pos.indirect_addr, align 8
  %mpNode = getelementptr inbounds %"class.EA::StdC::intrusive_list_iterator", ptr %pos, i32 0, i32 0
  %0 = load ptr, ptr %mpNode, align 8
  %mpPrev = getelementptr inbounds %"struct.EA::StdC::intrusive_list_node", ptr %0, i32 0, i32 1
  %1 = load ptr, ptr %mpPrev, align 8
  store ptr %1, ptr %prev, align 8
  %mpNode2 = getelementptr inbounds %"class.EA::StdC::intrusive_list_iterator", ptr %pos, i32 0, i32 0
  %2 = load ptr, ptr %mpNode2, align 8
  %mpNext = getelementptr inbounds %"struct.EA::StdC::intrusive_list_node", ptr %2, i32 0, i32 0
  %3 = load ptr, ptr %mpNext, align 8
  store ptr %3, ptr %next, align 8
  %4 = load ptr, ptr %next, align 8
  %5 = load ptr, ptr %prev, align 8
  %mpNext3 = getelementptr inbounds %"struct.EA::StdC::intrusive_list_node", ptr %5, i32 0, i32 0
  store ptr %4, ptr %mpNext3, align 8
  %6 = load ptr, ptr %prev, align 8
  %7 = load ptr, ptr %next, align 8
  %mpPrev4 = getelementptr inbounds %"struct.EA::StdC::intrusive_list_node", ptr %7, i32 0, i32 1
  store ptr %6, ptr %mpPrev4, align 8
  %8 = load ptr, ptr %next, align 8
  call void @_ZN2EA4StdC23intrusive_list_iteratorINS0_12OSGlobalNodeEPS2_RS2_EC2ES3_(ptr noundef nonnull align 8 dereferenceable(8) %agg.result, ptr noundef %8)
  ret void
}

; Function Attrs: mustprogress nounwind uwtable
define linkonce_odr dso_local void @_ZN2EA4StdC23intrusive_list_iteratorINS0_12OSGlobalNodeEPS2_RS2_EC2ERKS5_(ptr noundef nonnull align 8 dereferenceable(8) %this, ptr noundef nonnull align 8 dereferenceable(8) %x) unnamed_addr #1 comdat align 2 {
entry:
  %this.addr = alloca ptr, align 8
  %x.addr = alloca ptr, align 8
  store ptr %this, ptr %this.addr, align 8
  store ptr %x, ptr %x.addr, align 8
  %this1 = load ptr, ptr %this.addr, align 8
  %mpNode = getelementptr inbounds %"class.EA::StdC::intrusive_list_iterator", ptr %this1, i32 0, i32 0
  %0 = load ptr, ptr %x.addr, align 8
  %mpNode2 = getelementptr inbounds %"class.EA::StdC::intrusive_list_iterator", ptr %0, i32 0, i32 0
  %1 = load ptr, ptr %mpNode2, align 8
  store ptr %1, ptr %mpNode, align 8
  ret void
}

; Function Attrs: mustprogress uwtable
define linkonce_odr dso_local void @_ZN2EA4StdC14intrusive_listINS0_12OSGlobalNodeEE6locateERS2_(ptr noalias sret(%"class.EA::StdC::intrusive_list_iterator") align 8 %agg.result, ptr noundef nonnull align 8 dereferenceable(16) %this, ptr noundef nonnull align 8 dereferenceable(24) %x) #2 comdat align 2 {
entry:
  %result.ptr = alloca ptr, align 8
  %this.addr = alloca ptr, align 8
  %x.addr = alloca ptr, align 8
  %p = alloca ptr, align 8
  store ptr %agg.result, ptr %result.ptr, align 8
  store ptr %this, ptr %this.addr, align 8
  store ptr %x, ptr %x.addr, align 8
  %this1 = load ptr, ptr %this.addr, align 8
  %mAnchor = getelementptr inbounds %"class.EA::StdC::intrusive_list_base", ptr %this1, i32 0, i32 0
  %mpNext = getelementptr inbounds %"struct.EA::StdC::intrusive_list_node", ptr %mAnchor, i32 0, i32 0
  %0 = load ptr, ptr %mpNext, align 8
  store ptr %0, ptr %p, align 8
  br label %for.cond

for.cond:                                         ; preds = %for.inc, %entry
  %1 = load ptr, ptr %p, align 8
  %mAnchor2 = getelementptr inbounds %"class.EA::StdC::intrusive_list_base", ptr %this1, i32 0, i32 0
  %cmp = icmp ne ptr %1, %mAnchor2
  br i1 %cmp, label %for.body, label %for.end

for.body:                                         ; preds = %for.cond
  %2 = load ptr, ptr %p, align 8
  %3 = load ptr, ptr %x.addr, align 8
  %cmp3 = icmp eq ptr %2, %3
  br i1 %cmp3, label %if.then, label %if.end

if.then:                                          ; preds = %for.body
  %4 = load ptr, ptr %p, align 8
  call void @_ZN2EA4StdC23intrusive_list_iteratorINS0_12OSGlobalNodeEPS2_RS2_EC2ES3_(ptr noundef nonnull align 8 dereferenceable(8) %agg.result, ptr noundef %4)
  br label %return

if.end:                                           ; preds = %for.body
  br label %for.inc

for.inc:                                          ; preds = %if.end
  %5 = load ptr, ptr %p, align 8
  %mpNext4 = getelementptr inbounds %"struct.EA::StdC::intrusive_list_node", ptr %5, i32 0, i32 0
  %6 = load ptr, ptr %mpNext4, align 8
  store ptr %6, ptr %p, align 8
  br label %for.cond, !llvm.loop !7

for.end:                                          ; preds = %for.cond
  %mAnchor5 = getelementptr inbounds %"class.EA::StdC::intrusive_list_base", ptr %this1, i32 0, i32 0
  call void @_ZN2EA4StdC23intrusive_list_iteratorINS0_12OSGlobalNodeEPS2_RS2_EC2ES3_(ptr noundef nonnull align 8 dereferenceable(8) %agg.result, ptr noundef %mAnchor5)
  br label %return

return:                                           ; preds = %for.end, %if.then
  ret void
}

; Function Attrs: mustprogress nounwind uwtable
define linkonce_odr dso_local noundef i32 @_ZN2EA6Thread20AtomicFetchDecrementEPVj(ptr noundef %dest) #1 comdat {
entry:
  %dest.addr = alloca ptr, align 8
  store ptr %dest, ptr %dest.addr, align 8
  %0 = load ptr, ptr %dest.addr, align 8
  %1 = atomicrmw add ptr %0, i32 -1 seq_cst, align 4
  ret i32 %1
}

; Function Attrs: mustprogress uwtable
define linkonce_odr dso_local void @_ZN2EA4StdC5Mutex4LockEv(ptr noundef nonnull align 8 dereferenceable(48) %this) #2 comdat align 2 {
entry:
  %this.addr = alloca ptr, align 8
  store ptr %this, ptr %this.addr, align 8
  %this1 = load ptr, ptr %this.addr, align 8
  %mMutex = getelementptr inbounds %"class.EA::StdC::Mutex", ptr %this1, i32 0, i32 0
  %call = call noundef i32 @_ZN2EA6Thread5Mutex4LockERKNS0_10ThreadTimeE(ptr noundef nonnull align 8 dereferenceable(48) %mMutex, ptr noundef nonnull align 8 dereferenceable(16) @_ZN2EA6ThreadL12kTimeoutNoneE)
  ret void
}

; Function Attrs: mustprogress uwtable
define internal void @_ZN12_GLOBAL__N_122ShutdownOSGlobalSystemEv() #2 {
entry:
  %uniqueName = alloca [96 x i8], align 16
  %processID = alloca i32, align 4
  %call = call noundef i32 @_ZN2EA4StdC15AtomicDecrementEPj(ptr noundef @_ZN12_GLOBAL__N_113gOSGlobalRefsE)
  %cmp = icmp eq i32 %call, 0
  br i1 %cmp, label %if.then, label %if.end10

if.then:                                          ; preds = %entry
  %0 = load ptr, ptr @_ZN12_GLOBAL__N_117gpOSGlobalManagerE, align 8
  %tobool = icmp ne ptr %0, null
  br i1 %tobool, label %if.then1, label %if.end5

if.then1:                                         ; preds = %if.then
  %1 = load ptr, ptr @_ZN12_GLOBAL__N_117gpOSGlobalManagerE, align 8
  %mRefCount = getelementptr inbounds %"struct.(anonymous namespace)::OSGlobalManager", ptr %1, i32 0, i32 1
  %call2 = call noundef i32 @_ZN2EA4StdC15AtomicDecrementEPj(ptr noundef %mRefCount)
  %cmp3 = icmp eq i32 %call2, 0
  br i1 %cmp3, label %if.then4, label %if.end

if.then4:                                         ; preds = %if.then1
  %2 = load ptr, ptr @_ZN12_GLOBAL__N_117gpOSGlobalManagerE, align 8
  call void @_ZN12_GLOBAL__N_122DestroyOSGlobalManagerEPNS_15OSGlobalManagerE(ptr noundef %2)
  br label %if.end

if.end:                                           ; preds = %if.then4, %if.then1
  store ptr null, ptr @_ZN12_GLOBAL__N_117gpOSGlobalManagerE, align 8
  br label %if.end5

if.end5:                                          ; preds = %if.end, %if.then
  %arrayidx = getelementptr inbounds [96 x i8], ptr %uniqueName, i64 0, i64 0
  store i8 0, ptr %arrayidx, align 16
  %call6 = call i32 @getpid() #3
  store i32 %call6, ptr %processID, align 4
  %arraydecay = getelementptr inbounds [96 x i8], ptr %uniqueName, i64 0, i64 0
  %3 = load i32, ptr %processID, align 4
  %conv = sext i32 %3 to i64
  %call7 = call noundef i32 (ptr, ptr, ...) @_ZN2EA4StdC7SprintfEPcPKcz(ptr noundef %arraydecay, ptr noundef @.str, i64 noundef %conv)
  %arraydecay8 = getelementptr inbounds [96 x i8], ptr %uniqueName, i64 0, i64 0
  %call9 = call i32 @unsetenv(ptr noundef %arraydecay8) #3
  br label %if.end10

if.end10:                                         ; preds = %if.end5, %entry
  ret void
}

; Function Attrs: mustprogress uwtable
define internal void @_ZN12_GLOBAL__N_115OSGlobalManager6UnlockEv(ptr noundef nonnull align 8 dereferenceable(72) %this) #2 align 2 {
entry:
  %this.addr = alloca ptr, align 8
  store ptr %this, ptr %this.addr, align 8
  %this1 = load ptr, ptr %this.addr, align 8
  %mcsLock = getelementptr inbounds %"struct.(anonymous namespace)::OSGlobalManager", ptr %this1, i32 0, i32 3
  call void @_ZN2EA4StdC5Mutex6UnlockEv(ptr noundef nonnull align 8 dereferenceable(48) %mcsLock)
  ret void
}

; Function Attrs: mustprogress uwtable
define internal void @_ZN12_GLOBAL__N_115OSGlobalManager6RemoveEPN2EA4StdC12OSGlobalNodeE(ptr noundef nonnull align 8 dereferenceable(72) %this, ptr noundef %p) #2 align 2 {
entry:
  %this.addr = alloca ptr, align 8
  %p.addr = alloca ptr, align 8
  %it = alloca %"class.EA::StdC::intrusive_list_iterator", align 8
  %agg.tmp = alloca %"class.EA::StdC::intrusive_list_iterator", align 8
  %tmp = alloca %"class.EA::StdC::intrusive_list_iterator", align 8
  store ptr %this, ptr %this.addr, align 8
  store ptr %p, ptr %p.addr, align 8
  %this1 = load ptr, ptr %this.addr, align 8
  %mOSGlobalList = getelementptr inbounds %"struct.(anonymous namespace)::OSGlobalManager", ptr %this1, i32 0, i32 0
  %0 = load ptr, ptr %p.addr, align 8
  call void @_ZN2EA4StdC14intrusive_listINS0_12OSGlobalNodeEE6locateERS2_(ptr sret(%"class.EA::StdC::intrusive_list_iterator") align 8 %it, ptr noundef nonnull align 8 dereferenceable(16) %mOSGlobalList, ptr noundef nonnull align 8 dereferenceable(24) %0)
  %mOSGlobalList2 = getelementptr inbounds %"struct.(anonymous namespace)::OSGlobalManager", ptr %this1, i32 0, i32 0
  call void @_ZN2EA4StdC23intrusive_list_iteratorINS0_12OSGlobalNodeEPS2_RS2_EC2ERKS5_(ptr noundef nonnull align 8 dereferenceable(8) %agg.tmp, ptr noundef nonnull align 8 dereferenceable(8) %it)
  call void @_ZN2EA4StdC14intrusive_listINS0_12OSGlobalNodeEE5eraseENS0_23intrusive_list_iteratorIS2_PS2_RS2_EE(ptr sret(%"class.EA::StdC::intrusive_list_iterator") align 8 %tmp, ptr noundef nonnull align 8 dereferenceable(16) %mOSGlobalList2, ptr noundef %agg.tmp)
  ret void
}

; Function Attrs: mustprogress uwtable
define linkonce_odr dso_local noundef i32 @_ZN2EA4StdC15AtomicDecrementEPj(ptr noundef %pValue) #2 comdat {
entry:
  %pValue.addr = alloca ptr, align 8
  store ptr %pValue, ptr %pValue.addr, align 8
  %0 = load ptr, ptr %pValue.addr, align 8
  %call = call noundef i32 @_ZN2EA6Thread20AtomicFetchDecrementEPVj(ptr noundef %0)
  %sub = sub i32 %call, 1
  ret i32 %sub
}

; Function Attrs: mustprogress uwtable
define internal void @_ZN12_GLOBAL__N_115OSGlobalManager4LockEv(ptr noundef nonnull align 8 dereferenceable(72) %this) #2 align 2 {
entry:
  %this.addr = alloca ptr, align 8
  store ptr %this, ptr %this.addr, align 8
  %this1 = load ptr, ptr %this.addr, align 8
  %mcsLock = getelementptr inbounds %"struct.(anonymous namespace)::OSGlobalManager", ptr %this1, i32 0, i32 3
  call void @_ZN2EA4StdC5Mutex4LockEv(ptr noundef nonnull align 8 dereferenceable(48) %mcsLock)
  ret void
}

; Function Attrs: mustprogress uwtable
define dso_local noundef zeroext i1 @_ZN2EA4StdC15ReleaseOSGlobalEPNS0_12OSGlobalNodeE(ptr noundef %p) #2 {
entry:
  %p.addr = alloca ptr, align 8
  %shouldDestroyManager = alloca i8, align 1
  %shouldDestroyOSGlobal = alloca i8, align 1
  store ptr %p, ptr %p.addr, align 8
  %0 = load ptr, ptr @_ZN12_GLOBAL__N_117gpOSGlobalManagerE, align 8
  call void @_ZN12_GLOBAL__N_115OSGlobalManager4LockEv(ptr noundef nonnull align 8 dereferenceable(72) %0)
  %call = call noundef i32 @_ZN2EA4StdC15AtomicDecrementEPj(ptr noundef @_ZN12_GLOBAL__N_113gOSGlobalRefsE)
  %cmp = icmp eq i32 %call, 0
  %frombool = zext i1 %cmp to i8
  store i8 %frombool, ptr %shouldDestroyManager, align 1
  %1 = load ptr, ptr %p.addr, align 8
  %mOSGlobalRefCount = getelementptr inbounds %"struct.EA::StdC::OSGlobalNode", ptr %1, i32 0, i32 2
  %call1 = call noundef i32 @_ZN2EA4StdC15AtomicDecrementEPj(ptr noundef %mOSGlobalRefCount)
  %cmp2 = icmp eq i32 %call1, 0
  %frombool3 = zext i1 %cmp2 to i8
  store i8 %frombool3, ptr %shouldDestroyOSGlobal, align 1
  %2 = load i8, ptr %shouldDestroyOSGlobal, align 1
  %tobool = trunc i8 %2 to i1
  br i1 %tobool, label %if.then, label %if.end

if.then:                                          ; preds = %entry
  %3 = load ptr, ptr @_ZN12_GLOBAL__N_117gpOSGlobalManagerE, align 8
  %4 = load ptr, ptr %p.addr, align 8
  call void @_ZN12_GLOBAL__N_115OSGlobalManager6RemoveEPN2EA4StdC12OSGlobalNodeE(ptr noundef nonnull align 8 dereferenceable(72) %3, ptr noundef %4)
  br label %if.end

if.end:                                           ; preds = %if.then, %entry
  %5 = load ptr, ptr @_ZN12_GLOBAL__N_117gpOSGlobalManagerE, align 8
  call void @_ZN12_GLOBAL__N_115OSGlobalManager6UnlockEv(ptr noundef nonnull align 8 dereferenceable(72) %5)
  %6 = load i8, ptr %shouldDestroyManager, align 1
  %tobool4 = trunc i8 %6 to i1
  br i1 %tobool4, label %if.then5, label %if.end6

if.then5:                                         ; preds = %if.end
  call void @_ZN12_GLOBAL__N_122ShutdownOSGlobalSystemEv()
  br label %if.end6

if.end6:                                          ; preds = %if.then5, %if.end
  %7 = load i8, ptr %shouldDestroyOSGlobal, align 1
  %tobool7 = trunc i8 %7 to i1
  ret i1 %tobool7
}