; Function Attrs: mustprogress uwtable
define dso_local noundef zeroext i1 @_ZN2EA4StdC15ReleaseOSGlobalEPNS0_12OSGlobalNodeE(ptr noundef %p) local_unnamed_addr #0 {
entry:
  %uniqueName.i = alloca [96 x i8], align 16
  %0 = load ptr, ptr @_ZN12_GLOBAL__N_117gpOSGlobalManagerE, align 8
  %mcsLock.i = getelementptr inbounds nuw i8, ptr %0, i64 24
  %call.i.i = tail call noundef i32 @_ZN2EA6Thread5Mutex4LockERKNS0_10ThreadTimeE(ptr noundef nonnull align 8 dereferenceable(48) %mcsLock.i, ptr noundef nonnull align 8 dereferenceable(16) @_ZN2EA6ThreadL12kTimeoutNoneE)
  %1 = atomicrmw add ptr @_ZN12_GLOBAL__N_113gOSGlobalRefsE, i32 -1 seq_cst, align 4
  %cmp = icmp eq i32 %1, 1
  %mOSGlobalRefCount = getelementptr inbounds nuw i8, ptr %p, i64 20
  %2 = atomicrmw add ptr %mOSGlobalRefCount, i32 -1 seq_cst, align 4
  %cmp2 = icmp eq i32 %2, 1
  br i1 %cmp2, label %if.then, label %if.end

if.then:                                          ; preds = %entry
  %3 = load ptr, ptr @_ZN12_GLOBAL__N_117gpOSGlobalManagerE, align 8
  br label %for.cond.i.i

for.cond.i.i:                                     ; preds = %for.body.i.i, %if.then
  %p.0.in.i.i = phi ptr [ %3, %if.then ], [ %p.0.i.i, %for.body.i.i ]
  %p.0.i.i = load ptr, ptr %p.0.in.i.i, align 8, !noalias !7
  %cmp.not.i.i = icmp eq ptr %p.0.i.i, %3
  br i1 %cmp.not.i.i, label %_ZN12_GLOBAL__N_115OSGlobalManager6RemoveEPN2EA4StdC12OSGlobalNodeE.exit, label %for.body.i.i

for.body.i.i:                                     ; preds = %for.cond.i.i
  %cmp3.i.i = icmp eq ptr %p.0.i.i, %p
  br i1 %cmp3.i.i, label %_ZN12_GLOBAL__N_115OSGlobalManager6RemoveEPN2EA4StdC12OSGlobalNodeE.exit, label %for.cond.i.i, !llvm.loop !10

_ZN12_GLOBAL__N_115OSGlobalManager6RemoveEPN2EA4StdC12OSGlobalNodeE.exit: ; preds = %for.cond.i.i, %for.body.i.i
  %storemerge.i.i = phi ptr [ %p.0.i.i, %for.body.i.i ], [ %3, %for.cond.i.i ]
  %mpPrev.i.i = getelementptr inbounds nuw i8, ptr %storemerge.i.i, i64 8
  %4 = load ptr, ptr %mpPrev.i.i, align 8, !noalias !11
  %5 = load ptr, ptr %storemerge.i.i, align 8, !noalias !11
  store ptr %5, ptr %4, align 8, !noalias !11
  %mpPrev4.i.i = getelementptr inbounds nuw i8, ptr %5, i64 8
  store ptr %4, ptr %mpPrev4.i.i, align 8, !noalias !11
  br label %if.end

if.end:                                           ; preds = %_ZN12_GLOBAL__N_115OSGlobalManager6RemoveEPN2EA4StdC12OSGlobalNodeE.exit, %entry
  %6 = load ptr, ptr @_ZN12_GLOBAL__N_117gpOSGlobalManagerE, align 8
  %mcsLock.i4 = getelementptr inbounds nuw i8, ptr %6, i64 24
  %call.i.i5 = tail call noundef i32 @_ZN2EA6Thread5Mutex6UnlockEv(ptr noundef nonnull align 8 dereferenceable(48) %mcsLock.i4)
  br i1 %cmp, label %if.then5, label %if.end6

if.then5:                                         ; preds = %if.end
  call void @llvm.lifetime.start.p0(i64 96, ptr nonnull %uniqueName.i)
  %7 = atomicrmw add ptr @_ZN12_GLOBAL__N_113gOSGlobalRefsE, i32 -1 seq_cst, align 4
  %cmp.i = icmp eq i32 %7, 1
  br i1 %cmp.i, label %if.then.i, label %_ZN12_GLOBAL__N_122ShutdownOSGlobalSystemEv.exit

if.then.i:                                        ; preds = %if.then5
  %8 = load ptr, ptr @_ZN12_GLOBAL__N_117gpOSGlobalManagerE, align 8
  %tobool.not.i = icmp eq ptr %8, null
  br i1 %tobool.not.i, label %if.end5.i, label %if.then1.i

if.then1.i:                                       ; preds = %if.then.i
  %mRefCount.i = getelementptr inbounds nuw i8, ptr %8, i64 16
  %9 = atomicrmw add ptr %mRefCount.i, i32 -1 seq_cst, align 4
  %cmp3.i = icmp eq i32 %9, 1
  br i1 %cmp3.i, label %if.then4.i, label %if.end.i

if.then4.i:                                       ; preds = %if.then1.i
  %10 = load ptr, ptr @_ZN12_GLOBAL__N_117gpOSGlobalManagerE, align 8
  %tobool.not.i.i = icmp eq ptr %10, null
  br i1 %tobool.not.i.i, label %if.end.i, label %if.then.i.i

if.then.i.i:                                      ; preds = %if.then4.i
  %mcsLock.i.i.i = getelementptr inbounds nuw i8, ptr %10, i64 24
  tail call void @_ZN2EA6Thread5MutexD1Ev(ptr noundef nonnull align 8 dereferenceable(48) %mcsLock.i.i.i) #12
  %call.i.i6 = tail call i32 @munmap(ptr noundef nonnull %10, i64 noundef 72) #12
  br label %if.end.i

if.end.i:                                         ; preds = %if.then.i.i, %if.then4.i, %if.then1.i
  store ptr null, ptr @_ZN12_GLOBAL__N_117gpOSGlobalManagerE, align 8
  br label %if.end5.i

if.end5.i:                                        ; preds = %if.end.i, %if.then.i
  store i8 0, ptr %uniqueName.i, align 16
  %call6.i = tail call i32 @getpid() #12
  %conv.i = sext i32 %call6.i to i64
  %call7.i = call noundef i32 (ptr, ptr, ...) @_ZN2EA4StdC7SprintfEPcPKcz(ptr noundef nonnull %uniqueName.i, ptr noundef nonnull @.str, i64 noundef %conv.i)
  %call9.i = call i32 @unsetenv(ptr noundef nonnull %uniqueName.i) #12
  br label %_ZN12_GLOBAL__N_122ShutdownOSGlobalSystemEv.exit

_ZN12_GLOBAL__N_122ShutdownOSGlobalSystemEv.exit: ; preds = %if.then5, %if.end5.i
  call void @llvm.lifetime.end.p0(i64 96, ptr nonnull %uniqueName.i)
  br label %if.end6

if.end6:                                          ; preds = %_ZN12_GLOBAL__N_122ShutdownOSGlobalSystemEv.exit, %if.end
  ret i1 %cmp2
}